target datalayout = "e-m:e-p270:32:32-p271:32:32-p272:64:64-i64:64-i128:128-f80:128-n8:16:32:64-S128"
target triple = "x86_64-pc-linux-gnu"

%struct.lxb_encoding_single_index_t = type { [4 x i8], i32, i32 }
%struct.lxb_encoding_decode_t = type { ptr, ptr, i64, i64, ptr, i64, i32, i32, i8, i8, i32, %union.anon }
%union.anon = type { %struct.lxb_encoding_ctx_2022_jp_t }
%struct.lxb_encoding_ctx_2022_jp_t = type { i8, i8, i32, i32, i8 }

@lxb_encoding_multi_index_jis0208 = external constant [11104 x %struct.lxb_encoding_single_index_t], align 16

; Function Attrs: nounwind uwtable
define hidden i32 @lxb_encoding_decode_shift_jis_single(ptr noundef %0, ptr noundef %1, ptr noundef %2) #0 {
  %4 = alloca i32, align 4
  %5 = alloca ptr, align 8
  %6 = alloca ptr, align 8
  %7 = alloca ptr, align 8
  %8 = alloca i8, align 1
  %9 = alloca i8, align 1
  %10 = alloca i32, align 4
  store ptr %0, ptr %5, align 8, !tbaa !4
  store ptr %1, ptr %6, align 8, !tbaa !8
  store ptr %2, ptr %7, align 8, !tbaa !10
  call void @llvm.lifetime.start.p0(i64 1, ptr %8) #5
  call void @llvm.lifetime.start.p0(i64 1, ptr %9) #5
  %11 = load ptr, ptr %5, align 8, !tbaa !4
  %12 = getelementptr inbounds nuw %struct.lxb_encoding_decode_t, ptr %11, i32 0, i32 11
  %13 = load i32, ptr %12, align 8, !tbaa !27
  %14 = icmp ne i32 %13, 0
  br i1 %14, label %15, label %22

15:                                               ; preds = %3
  %16 = load ptr, ptr %5, align 8, !tbaa !4
  %17 = getelementptr inbounds nuw %struct.lxb_encoding_decode_t, ptr %16, i32 0, i32 11
  %18 = load i32, ptr %17, align 8, !tbaa !27
  %19 = trunc i32 %18 to i8
  store i8 %19, ptr %9, align 1, !tbaa !27
  %20 = load ptr, ptr %5, align 8, !tbaa !4
  %21 = getelementptr inbounds nuw %struct.lxb_encoding_decode_t, ptr %20, i32 0, i32 11
  store i32 0, ptr %21, align 8, !tbaa !27
  br label %67

22:                                               ; preds = %3
  %23 = load ptr, ptr %6, align 8, !tbaa !8
  %24 = load ptr, ptr %23, align 8, !tbaa !10
  %25 = getelementptr inbounds nuw i8, ptr %24, i32 1
  store ptr %25, ptr %23, align 8, !tbaa !10
  %26 = load i8, ptr %24, align 1, !tbaa !27
  store i8 %26, ptr %9, align 1, !tbaa !27
  %27 = load i8, ptr %9, align 1, !tbaa !27
  %28 = zext i8 %27 to i32
  %29 = icmp sle i32 %28, 128
  br i1 %29, label %30, label %33

30:                                               ; preds = %22
  %31 = load i8, ptr %9, align 1, !tbaa !27
  %32 = zext i8 %31 to i32
  store i32 %32, ptr %4, align 4
  store i32 1, ptr %10, align 4
  br label %164

33:                                               ; preds = %22
  %34 = load i8, ptr %9, align 1, !tbaa !27
  %35 = zext i8 %34 to i32
  %36 = sub nsw i32 %35, 161
  %37 = icmp ule i32 %36, 62
  br i1 %37, label %38, label %42

38:                                               ; preds = %33
  %39 = load i8, ptr %9, align 1, !tbaa !27
  %40 = zext i8 %39 to i32
  %41 = add nsw i32 65216, %40
  store i32 %41, ptr %4, align 4
  store i32 1, ptr %10, align 4
  br label %164

42:                                               ; preds = %33
  %43 = load i8, ptr %9, align 1, !tbaa !27
  %44 = zext i8 %43 to i32
  %45 = sub nsw i32 %44, 129
  %46 = icmp ugt i32 %45, 30
  br i1 %46, label %47, label %56

47:                                               ; preds = %42
  %48 = load i8, ptr %9, align 1, !tbaa !27
  %49 = zext i8 %48 to i32
  %50 = icmp ne i32 %49, 224
  br i1 %50, label %51, label %56

51:                                               ; preds = %47
  %52 = load i8, ptr %9, align 1, !tbaa !27
  %53 = zext i8 %52 to i32
  %54 = icmp ne i32 %53, 252
  br i1 %54, label %55, label %56

55:                                               ; preds = %51
  store i32 2097151, ptr %4, align 4
  store i32 1, ptr %10, align 4
  br label %164

56:                                               ; preds = %51, %47, %42
  %57 = load ptr, ptr %6, align 8, !tbaa !8
  %58 = load ptr, ptr %57, align 8, !tbaa !10
  %59 = load ptr, ptr %7, align 8, !tbaa !10
  %60 = icmp uge ptr %58, %59
  br i1 %60, label %61, label %66

61:                                               ; preds = %56
  %62 = load i8, ptr %9, align 1, !tbaa !27
  %63 = zext i8 %62 to i32
  %64 = load ptr, ptr %5, align 8, !tbaa !4
  %65 = getelementptr inbounds nuw %struct.lxb_encoding_decode_t, ptr %64, i32 0, i32 11
  store i32 %63, ptr %65, align 8, !tbaa !27
  store i32 3145727, ptr %4, align 4
  store i32 1, ptr %10, align 4
  br label %164

66:                                               ; preds = %56
  br label %67

67:                                               ; preds = %66, %15
  %68 = load ptr, ptr %6, align 8, !tbaa !8
  %69 = load ptr, ptr %68, align 8, !tbaa !10
  %70 = getelementptr inbounds nuw i8, ptr %69, i32 1
  store ptr %70, ptr %68, align 8, !tbaa !10
  %71 = load i8, ptr %69, align 1, !tbaa !27
  store i8 %71, ptr %8, align 1, !tbaa !27
  %72 = load i8, ptr %8, align 1, !tbaa !27
  %73 = zext i8 %72 to i32
  %74 = icmp slt i32 %73, 127
  br i1 %74, label %75, label %78

75:                                               ; preds = %67
  %76 = load ptr, ptr %5, align 8, !tbaa !4
  %77 = getelementptr inbounds nuw %struct.lxb_encoding_decode_t, ptr %76, i32 0, i32 6
  store i32 64, ptr %77, align 8, !tbaa !29
  br label %81

78:                                               ; preds = %67
  %79 = load ptr, ptr %5, align 8, !tbaa !4
  %80 = getelementptr inbounds nuw %struct.lxb_encoding_decode_t, ptr %79, i32 0, i32 6
  store i32 65, ptr %80, align 8, !tbaa !29
  br label %81

81:                                               ; preds = %78, %75
  %82 = load i8, ptr %9, align 1, !tbaa !27
  %83 = zext i8 %82 to i32
  %84 = icmp slt i32 %83, 160
  br i1 %84, label %85, label %88

85:                                               ; preds = %81
  %86 = load ptr, ptr %5, align 8, !tbaa !4
  %87 = getelementptr inbounds nuw %struct.lxb_encoding_decode_t, ptr %86, i32 0, i32 7
  store i32 129, ptr %87, align 4, !tbaa !30
  br label %91

88:                                               ; preds = %81
  %89 = load ptr, ptr %5, align 8, !tbaa !4
  %90 = getelementptr inbounds nuw %struct.lxb_encoding_decode_t, ptr %89, i32 0, i32 7
  store i32 193, ptr %90, align 4, !tbaa !30
  br label %91

91:                                               ; preds = %88, %85
  %92 = load i8, ptr %8, align 1, !tbaa !27
  %93 = zext i8 %92 to i32
  %94 = sub nsw i32 %93, 64
  %95 = icmp ule i32 %94, 62
  br i1 %95, label %101, label %96

96:                                               ; preds = %91
  %97 = load i8, ptr %8, align 1, !tbaa !27
  %98 = zext i8 %97 to i32
  %99 = sub nsw i32 %98, 128
  %100 = icmp ule i32 %99, 124
  br i1 %100, label %101, label %154

101:                                              ; preds = %96, %91
  %102 = load i8, ptr %9, align 1, !tbaa !27
  %103 = zext i8 %102 to i32
  %104 = load ptr, ptr %5, align 8, !tbaa !4
  %105 = getelementptr inbounds nuw %struct.lxb_encoding_decode_t, ptr %104, i32 0, i32 7
  %106 = load i32, ptr %105, align 4, !tbaa !30
  %107 = sub i32 %103, %106
  %108 = mul i32 %107, 188
  %109 = load i8, ptr %8, align 1, !tbaa !27
  %110 = zext i8 %109 to i32
  %111 = add i32 %108, %110
  %112 = load ptr, ptr %5, align 8, !tbaa !4
  %113 = getelementptr inbounds nuw %struct.lxb_encoding_decode_t, ptr %112, i32 0, i32 6
  %114 = load i32, ptr %113, align 8, !tbaa !29
  %115 = sub i32 %111, %114
  %116 = load ptr, ptr %5, align 8, !tbaa !4
  %117 = getelementptr inbounds nuw %struct.lxb_encoding_decode_t, ptr %116, i32 0, i32 6
  store i32 %115, ptr %117, align 8, !tbaa !29
  %118 = load ptr, ptr %5, align 8, !tbaa !4
  %119 = getelementptr inbounds nuw %struct.lxb_encoding_decode_t, ptr %118, i32 0, i32 6
  %120 = load i32, ptr %119, align 8, !tbaa !29
  %121 = zext i32 %120 to i64
  %122 = icmp uge i64 %121, 11104
  br i1 %122, label %123, label %124

123:                                              ; preds = %101
  br label %155

124:                                              ; preds = %101
  %125 = load ptr, ptr %5, align 8, !tbaa !4
  %126 = getelementptr inbounds nuw %struct.lxb_encoding_decode_t, ptr %125, i32 0, i32 6
  %127 = load i32, ptr %126, align 8, !tbaa !29
  %128 = sub i32 %127, 8836
  %129 = icmp ule i32 %128, 1879
  br i1 %129, label %130, label %135

130:                                              ; preds = %124
  %131 = load ptr, ptr %5, align 8, !tbaa !4
  %132 = getelementptr inbounds nuw %struct.lxb_encoding_decode_t, ptr %131, i32 0, i32 6
  %133 = load i32, ptr %132, align 8, !tbaa !29
  %134 = add i32 48508, %133
  store i32 %134, ptr %4, align 4
  store i32 1, ptr %10, align 4
  br label %164

135:                                              ; preds = %124
  %136 = load ptr, ptr %5, align 8, !tbaa !4
  %137 = getelementptr inbounds nuw %struct.lxb_encoding_decode_t, ptr %136, i32 0, i32 6
  %138 = load i32, ptr %137, align 8, !tbaa !29
  %139 = zext i32 %138 to i64
  %140 = getelementptr inbounds nuw [11104 x %struct.lxb_encoding_single_index_t], ptr @lxb_encoding_multi_index_jis0208, i64 0, i64 %139
  %141 = getelementptr inbounds nuw %struct.lxb_encoding_single_index_t, ptr %140, i32 0, i32 2
  %142 = load i32, ptr %141, align 4, !tbaa !31
  %143 = load ptr, ptr %5, align 8, !tbaa !4
  %144 = getelementptr inbounds nuw %struct.lxb_encoding_decode_t, ptr %143, i32 0, i32 6
  store i32 %142, ptr %144, align 8, !tbaa !29
  %145 = load ptr, ptr %5, align 8, !tbaa !4
  %146 = getelementptr inbounds nuw %struct.lxb_encoding_decode_t, ptr %145, i32 0, i32 6
  %147 = load i32, ptr %146, align 8, !tbaa !29
  %148 = icmp eq i32 %147, 2097151
  br i1 %148, label %149, label %150

149:                                              ; preds = %135
  br label %155

150:                                              ; preds = %135
  %151 = load ptr, ptr %5, align 8, !tbaa !4
  %152 = getelementptr inbounds nuw %struct.lxb_encoding_decode_t, ptr %151, i32 0, i32 6
  %153 = load i32, ptr %152, align 8, !tbaa !29
  store i32 %153, ptr %4, align 4
  store i32 1, ptr %10, align 4
  br label %164

154:                                              ; preds = %96
  br label %155

155:                                              ; preds = %154, %149, %123
  %156 = load i8, ptr %8, align 1, !tbaa !27
  %157 = zext i8 %156 to i32
  %158 = icmp slt i32 %157, 128
  br i1 %158, label %159, label %163

159:                                              ; preds = %155
  %160 = load ptr, ptr %6, align 8, !tbaa !8
  %161 = load ptr, ptr %160, align 8, !tbaa !10
  %162 = getelementptr inbounds i8, ptr %161, i32 -1
  store ptr %162, ptr %160, align 8, !tbaa !10
  br label %163

163:                                              ; preds = %159, %155
  store i32 2097151, ptr %4, align 4
  store i32 1, ptr %10, align 4
  br label %164

164:                                              ; preds = %163, %150, %130, %61, %55, %38, %30
  call void @llvm.lifetime.end.p0(i64 1, ptr %9) #5
  call void @llvm.lifetime.end.p0(i64 1, ptr %8) #5
  %165 = load i32, ptr %4, align 4
  ret i32 %165
}