; Function Attrs: mustprogress nofree norecurse nosync nounwind willreturn memory(read, argmem: readwrite, inaccessiblemem: none) uwtable
define hidden i32 @lxb_encoding_decode_shift_jis_single(ptr noundef captures(none) %0, ptr noundef captures(none) %1, ptr noundef readnone captures(address) %2) local_unnamed_addr #7 {
  %4 = getelementptr inbounds nuw i8, ptr %0, i64 64
  %5 = load i32, ptr %4, align 8, !tbaa !24
  %.not = icmp eq i32 %5, 0
  br i1 %.not, label %8, label %6

6:                                                ; preds = %3
  %7 = trunc i32 %5 to i8
  store i32 0, ptr %4, align 8, !tbaa !24
  %.pre = load ptr, ptr %1, align 8, !tbaa !4
  br label %24

8:                                                ; preds = %3
  %9 = load ptr, ptr %1, align 8, !tbaa !4
  %10 = getelementptr inbounds nuw i8, ptr %9, i64 1
  store ptr %10, ptr %1, align 8, !tbaa !4
  %11 = load i8, ptr %9, align 1, !tbaa !24
  %.fr = freeze i8 %11
  %12 = zext i8 %.fr to i32
  %13 = icmp ult i8 %.fr, -127
  br i1 %13, label %57, label %14

14:                                               ; preds = %8
  %15 = add nsw i8 %.fr, 95
  %16 = icmp ult i8 %15, 63
  br i1 %16, label %17, label %19

17:                                               ; preds = %14
  %18 = add nuw nsw i32 %12, 65216
  br label %57

19:                                               ; preds = %14
  %20 = add nsw i32 %12, -160
  %21 = icmp ult i32 %20, -31
  br i1 %21, label %switch.early.test, label %22

switch.early.test:                                ; preds = %19
  switch i8 %.fr, label %57 [
    i8 -4, label %22
    i8 -32, label %22
  ]

22:                                               ; preds = %switch.early.test, %switch.early.test, %19
  %.not48 = icmp ult ptr %10, %2
  br i1 %.not48, label %24, label %23

23:                                               ; preds = %22
  store i32 %12, ptr %4, align 8, !tbaa !24
  br label %57

24:                                               ; preds = %22, %6
  %25 = phi ptr [ %.pre, %6 ], [ %10, %22 ]
  %.0 = phi i8 [ %7, %6 ], [ %.fr, %22 ]
  %26 = getelementptr inbounds nuw i8, ptr %25, i64 1
  store ptr %26, ptr %1, align 8, !tbaa !4
  %27 = load i8, ptr %25, align 1, !tbaa !24
  %28 = icmp ult i8 %27, 127
  %spec.select = select i1 %28, i32 64, i32 65
  %29 = getelementptr inbounds nuw i8, ptr %0, i64 48
  store i32 %spec.select, ptr %29, align 8, !tbaa !25
  %30 = icmp ult i8 %.0, -96
  %31 = select i1 %30, i32 129, i32 193
  %32 = getelementptr inbounds nuw i8, ptr %0, i64 52
  store i32 %31, ptr %32, align 4, !tbaa !27
  %33 = add i8 %27, -64
  %34 = icmp ult i8 %33, 63
  %35 = icmp slt i8 %27, -3
  %or.cond = or i1 %35, %34
  br i1 %or.cond, label %36, label %54

36:                                               ; preds = %24
  %37 = zext i8 %.0 to i32
  %38 = zext i8 %27 to i32
  %39 = sub nsw i32 %37, %31
  %40 = mul nsw i32 %39, 188
  %41 = sub nsw i32 %38, %spec.select
  %42 = add nsw i32 %41, %40
  store i32 %42, ptr %29, align 8, !tbaa !25
  %43 = zext i32 %42 to i64
  %44 = icmp ugt i32 %42, 11103
  br i1 %44, label %54, label %45

45:                                               ; preds = %36
  %46 = add nsw i32 %42, -8836
  %47 = icmp ult i32 %46, 1880
  br i1 %47, label %48, label %50

48:                                               ; preds = %45
  %49 = add nuw nsw i32 %42, 48508
  br label %57

50:                                               ; preds = %45
  %51 = getelementptr inbounds nuw [11104 x %struct.lxb_encoding_single_index_t], ptr @lxb_encoding_multi_index_jis0208, i64 0, i64 %43, i32 2
  %52 = load i32, ptr %51, align 4, !tbaa !28
  store i32 %52, ptr %29, align 8, !tbaa !25
  %53 = icmp eq i32 %52, 2097151
  br i1 %53, label %54, label %57

54:                                               ; preds = %24, %50, %36
  %55 = icmp sgt i8 %27, -1
  br i1 %55, label %56, label %57

56:                                               ; preds = %54
  store ptr %25, ptr %1, align 8, !tbaa !4
  br label %57

57:                                               ; preds = %54, %56, %50, %switch.early.test, %8, %48, %23, %17
  %.043 = phi i32 [ %49, %48 ], [ %18, %17 ], [ 3145727, %23 ], [ %12, %8 ], [ 2097151, %switch.early.test ], [ %52, %50 ], [ 2097151, %56 ], [ 2097151, %54 ]
  ret i32 %.043
}